; ModuleID = '44/984.c'
source_filename = "44/984.c"
target datalayout = "e-m:e-p270:32:32-p271:32:32-p272:64:64-i64:64-f80:128-n8:16:32:64-S128"
target triple = "x86_64-pc-linux-gnu"

@.str = private unnamed_addr constant [3 x i8] c"%d\00", align 1
@.str.1 = private unnamed_addr constant [4 x i8] c"%d\0A\00", align 1

; Function Attrs: noinline nounwind uwtable
define dso_local void @main() #0 {
  %1 = alloca [6 x i32], align 16
  %2 = alloca i32, align 4
  %3 = alloca i32, align 4
  store i32 0, i32* %2, align 4
  br label %4

4:                                                ; preds = %12, %0
  %5 = load i32, i32* %2, align 4
  %6 = icmp sle i32 %5, 5
  br i1 %6, label %7, label %15

7:                                                ; preds = %4
  %8 = load i32, i32* %2, align 4
  %9 = sext i32 %8 to i64
  %10 = getelementptr inbounds [6 x i32], [6 x i32]* %1, i64 0, i64 %9
  %11 = call i32 (i8*, ...) @__isoc99_scanf(i8* getelementptr inbounds ([3 x i8], [3 x i8]* @.str, i64 0, i64 0), i32* %10)
  br label %12

12:                                               ; preds = %7
  %13 = load i32, i32* %2, align 4
  %14 = add nsw i32 %13, 1
  store i32 %14, i32* %2, align 4
  br label %4

15:                                               ; preds = %4
  store i32 0, i32* %2, align 4
  br label %16

16:                                               ; preds = %34, %15
  %17 = load i32, i32* %2, align 4
  %18 = icmp sle i32 %17, 5
  br i1 %18, label %19, label %37

19:                                               ; preds = %16
  %20 = load i32, i32* %2, align 4
  %21 = sext i32 %20 to i64
  %22 = getelementptr inbounds [6 x i32], [6 x i32]* %1, i64 0, i64 %21
  %23 = load i32, i32* %22, align 4
  store i32 %23, i32* %3, align 4
  %24 = load i32, i32* %3, align 4
  %25 = call i32 @reverse(i32 %24)
  %26 = load i32, i32* %2, align 4
  %27 = sext i32 %26 to i64
  %28 = getelementptr inbounds [6 x i32], [6 x i32]* %1, i64 0, i64 %27
  store i32 %25, i32* %28, align 4
  %29 = load i32, i32* %2, align 4
  %30 = sext i32 %29 to i64
  %31 = getelementptr inbounds [6 x i32], [6 x i32]* %1, i64 0, i64 %30
  %32 = load i32, i32* %31, align 4
  %33 = call i32 (i8*, ...) @printf(i8* getelementptr inbounds ([4 x i8], [4 x i8]* @.str.1, i64 0, i64 0), i32 %32)
  br label %34

34:                                               ; preds = %19
  %35 = load i32, i32* %2, align 4
  %36 = add nsw i32 %35, 1
  store i32 %36, i32* %2, align 4
  br label %16

37:                                               ; preds = %16
  ret void
}

declare dso_local i32 @__isoc99_scanf(i8*, ...) #1

; Function Attrs: noinline nounwind uwtable
define dso_local i32 @reverse(i32 %0) #0 {
  %2 = alloca i32, align 4
  %3 = alloca i32, align 4
  %4 = alloca i32, align 4
  %5 = alloca i32, align 4
  %6 = alloca i32, align 4
  %7 = alloca i32, align 4
  %8 = alloca i32, align 4
  %9 = alloca i32, align 4
  %10 = alloca i32, align 4
  store i32 %0, i32* %2, align 4
  store i32 1, i32* %10, align 4
  %11 = load i32, i32* %2, align 4
  %12 = icmp eq i32 %11, 0
  br i1 %12, label %13, label %14

13:                                               ; preds = %1
  store i32 0, i32* %3, align 4
  br label %105

14:                                               ; preds = %1
  %15 = load i32, i32* %2, align 4
  %16 = icmp sgt i32 %15, 0
  br i1 %16, label %17, label %19

17:                                               ; preds = %14
  %18 = load i32, i32* %2, align 4
  store i32 %18, i32* %9, align 4
  br label %19

19:                                               ; preds = %17, %14
  %20 = load i32, i32* %2, align 4
  %21 = icmp slt i32 %20, 0
  br i1 %21, label %22, label %25

22:                                               ; preds = %19
  %23 = load i32, i32* %2, align 4
  %24 = mul nsw i32 -1, %23
  store i32 %24, i32* %9, align 4
  br label %25

25:                                               ; preds = %22, %19
  %26 = load i32, i32* %9, align 4
  %27 = srem i32 %26, 10
  store i32 %27, i32* %4, align 4
  %28 = load i32, i32* %9, align 4
  %29 = sdiv i32 %28, 10
  %30 = srem i32 %29, 10
  store i32 %30, i32* %5, align 4
  %31 = load i32, i32* %9, align 4
  %32 = sdiv i32 %31, 100
  %33 = srem i32 %32, 10
  store i32 %33, i32* %6, align 4
  %34 = load i32, i32* %9, align 4
  %35 = sdiv i32 %34, 1000
  %36 = srem i32 %35, 10
  store i32 %36, i32* %7, align 4
  %37 = load i32, i32* %9, align 4
  %38 = sdiv i32 %37, 10000
  %39 = srem i32 %38, 10
  store i32 %39, i32* %8, align 4
  %40 = load i32, i32* %8, align 4
  %41 = icmp sgt i32 %40, 0
  br i1 %41, label %42, label %56

42:                                               ; preds = %25
  %43 = load i32, i32* %4, align 4
  %44 = mul nsw i32 %43, 10000
  %45 = load i32, i32* %5, align 4
  %46 = mul nsw i32 %45, 1000
  %47 = add nsw i32 %44, %46
  %48 = load i32, i32* %6, align 4
  %49 = mul nsw i32 %48, 100
  %50 = add nsw i32 %47, %49
  %51 = load i32, i32* %7, align 4
  %52 = mul nsw i32 %51, 10
  %53 = add nsw i32 %50, %52
  %54 = load i32, i32* %8, align 4
  %55 = add nsw i32 %53, %54
  store i32 %55, i32* %3, align 4
  br label %98

56:                                               ; preds = %25
  %57 = load i32, i32* %7, align 4
  %58 = icmp sgt i32 %57, 0
  br i1 %58, label %59, label %70

59:                                               ; preds = %56
  %60 = load i32, i32* %4, align 4
  %61 = mul nsw i32 %60, 1000
  %62 = load i32, i32* %5, align 4
  %63 = mul nsw i32 %62, 100
  %64 = add nsw i32 %61, %63
  %65 = load i32, i32* %6, align 4
  %66 = mul nsw i32 %65, 10
  %67 = add nsw i32 %64, %66
  %68 = load i32, i32* %7, align 4
  %69 = add nsw i32 %67, %68
  store i32 %69, i32* %3, align 4
  br label %97

70:                                               ; preds = %56
  %71 = load i32, i32* %6, align 4
  %72 = icmp sgt i32 %71, 0
  br i1 %72, label %73, label %81

73:                                               ; preds = %70
  %74 = load i32, i32* %4, align 4
  %75 = mul nsw i32 %74, 100
  %76 = load i32, i32* %5, align 4
  %77 = mul nsw i32 %76, 10
  %78 = add nsw i32 %75, %77
  %79 = load i32, i32* %6, align 4
  %80 = add nsw i32 %78, %79
  store i32 %80, i32* %3, align 4
  br label %96

81:                                               ; preds = %70
  %82 = load i32, i32* %5, align 4
  %83 = icmp sgt i32 %82, 0
  br i1 %83, label %84, label %89

84:                                               ; preds = %81
  %85 = load i32, i32* %4, align 4
  %86 = mul nsw i32 %85, 10
  %87 = load i32, i32* %5, align 4
  %88 = add nsw i32 %86, %87
  store i32 %88, i32* %3, align 4
  br label %95

89:                                               ; preds = %81
  %90 = load i32, i32* %4, align 4
  %91 = icmp sgt i32 %90, 0
  br i1 %91, label %92, label %94

92:                                               ; preds = %89
  %93 = load i32, i32* %4, align 4
  store i32 %93, i32* %3, align 4
  br label %94

94:                                               ; preds = %92, %89
  br label %95

95:                                               ; preds = %94, %84
  br label %96

96:                                               ; preds = %95, %73
  br label %97

97:                                               ; preds = %96, %59
  br label %98

98:                                               ; preds = %97, %42
  %99 = load i32, i32* %2, align 4
  %100 = icmp slt i32 %99, 0
  br i1 %100, label %101, label %104

101:                                              ; preds = %98
  %102 = load i32, i32* %3, align 4
  %103 = mul nsw i32 %102, -1
  store i32 %103, i32* %3, align 4
  br label %104

104:                                              ; preds = %101, %98
  br label %105

105:                                              ; preds = %104, %13
  %106 = load i32, i32* %3, align 4
  ret i32 %106
}

declare dso_local i32 @printf(i8*, ...) #1


!llvm.module.flags = !{!0}
!llvm.ident = !{!1}

!0 = !{i32 1, !"wchar_size", i32 4}
!1 = !{!"clang version 10.0.0-4ubuntu1 "}
